target datalayout = "e-m:e-p270:32:32-p271:32:32-p272:64:64-i64:64-i128:128-f80:128-n8:16:32:64-S128"
target triple = "x86_64-pc-linux-gnu"

%"class.ncnn::Mat" = type { ptr, ptr, i64, i32, ptr, i32, i32, i32, i32, i32, i64 }

; Function Attrs: mustprogress uwtable
define hidden i32 @ncnn_extractor_extract_index(ptr noundef %0, i32 noundef %1, ptr noundef %2) #1 personality ptr @__gxx_personality_v0 {
  %4 = alloca ptr, align 8
  %5 = alloca i32, align 4
  %6 = alloca i32, align 4
  %7 = alloca ptr, align 8
  %8 = alloca ptr, align 8
  %9 = alloca ptr, align 8
  %10 = alloca i32, align 4
  %11 = alloca i32, align 4
  %12 = alloca ptr, align 8
  %13 = alloca i32, align 4
  %14 = alloca i32, align 4
  %15 = alloca ptr, align 8
  %16 = alloca ptr, align 8
  %17 = alloca ptr, align 8
  %18 = alloca ptr, align 8
  %19 = alloca ptr, align 8
  %20 = alloca ptr, align 8
  %21 = alloca i32, align 4
  %22 = alloca ptr, align 8
  %23 = alloca %"class.ncnn::Mat", align 8
  %24 = alloca i32, align 4
  %25 = alloca ptr, align 8
  %26 = alloca i32, align 4
  store ptr %0, ptr %20, align 8
  store i32 %1, ptr %21, align 4
  store ptr %2, ptr %22, align 8
  store ptr %23, ptr %19, align 8
  %27 = load ptr, ptr %19, align 8
  store ptr null, ptr %27, align 8
  %28 = getelementptr inbounds nuw %"class.ncnn::Mat", ptr %27, i32 0, i32 1
  store ptr null, ptr %28, align 8
  %29 = getelementptr inbounds nuw %"class.ncnn::Mat", ptr %27, i32 0, i32 2
  store i64 0, ptr %29, align 8
  %30 = getelementptr inbounds nuw %"class.ncnn::Mat", ptr %27, i32 0, i32 3
  store i32 0, ptr %30, align 8
  %31 = getelementptr inbounds nuw %"class.ncnn::Mat", ptr %27, i32 0, i32 4
  store ptr null, ptr %31, align 8
  %32 = getelementptr inbounds nuw %"class.ncnn::Mat", ptr %27, i32 0, i32 5
  store i32 0, ptr %32, align 8
  %33 = getelementptr inbounds nuw %"class.ncnn::Mat", ptr %27, i32 0, i32 6
  store i32 0, ptr %33, align 4
  %34 = getelementptr inbounds nuw %"class.ncnn::Mat", ptr %27, i32 0, i32 7
  store i32 0, ptr %34, align 8
  %35 = getelementptr inbounds nuw %"class.ncnn::Mat", ptr %27, i32 0, i32 8
  store i32 0, ptr %35, align 4
  %36 = getelementptr inbounds nuw %"class.ncnn::Mat", ptr %27, i32 0, i32 9
  store i32 0, ptr %36, align 8
  %37 = getelementptr inbounds nuw %"class.ncnn::Mat", ptr %27, i32 0, i32 10
  store i64 0, ptr %37, align 8
  %38 = load ptr, ptr %20, align 8
  %39 = load i32, ptr %21, align 4
  %40 = invoke noundef i32 @_ZN4ncnn9Extractor7extractEiRNS_3MatEi(ptr noundef nonnull align 8 dereferenceable(16) %38, i32 noundef %39, ptr noundef nonnull align 8 dereferenceable(72) %23, i32 noundef 0)
          to label %41 unwind label %146

41:                                               ; preds = %3
  store i32 %40, ptr %24, align 4
  %42 = invoke noalias noundef nonnull ptr @_Znwm(i64 noundef 72) #13
          to label %43 unwind label %146

43:                                               ; preds = %41
  store ptr %42, ptr %15, align 8
  store ptr %23, ptr %16, align 8
  %44 = load ptr, ptr %15, align 8
  %45 = load ptr, ptr %16, align 8
  %46 = load ptr, ptr %45, align 8
  store ptr %46, ptr %44, align 8
  %47 = getelementptr inbounds nuw %"class.ncnn::Mat", ptr %44, i32 0, i32 1
  %48 = load ptr, ptr %16, align 8
  %49 = getelementptr inbounds nuw %"class.ncnn::Mat", ptr %48, i32 0, i32 1
  %50 = load ptr, ptr %49, align 8
  store ptr %50, ptr %47, align 8
  %51 = getelementptr inbounds nuw %"class.ncnn::Mat", ptr %44, i32 0, i32 2
  %52 = load ptr, ptr %16, align 8
  %53 = getelementptr inbounds nuw %"class.ncnn::Mat", ptr %52, i32 0, i32 2
  %54 = load i64, ptr %53, align 8
  store i64 %54, ptr %51, align 8
  %55 = getelementptr inbounds nuw %"class.ncnn::Mat", ptr %44, i32 0, i32 3
  %56 = load ptr, ptr %16, align 8
  %57 = getelementptr inbounds nuw %"class.ncnn::Mat", ptr %56, i32 0, i32 3
  %58 = load i32, ptr %57, align 8
  store i32 %58, ptr %55, align 8
  %59 = getelementptr inbounds nuw %"class.ncnn::Mat", ptr %44, i32 0, i32 4
  %60 = load ptr, ptr %16, align 8
  %61 = getelementptr inbounds nuw %"class.ncnn::Mat", ptr %60, i32 0, i32 4
  %62 = load ptr, ptr %61, align 8
  store ptr %62, ptr %59, align 8
  %63 = getelementptr inbounds nuw %"class.ncnn::Mat", ptr %44, i32 0, i32 5
  %64 = load ptr, ptr %16, align 8
  %65 = getelementptr inbounds nuw %"class.ncnn::Mat", ptr %64, i32 0, i32 5
  %66 = load i32, ptr %65, align 8
  store i32 %66, ptr %63, align 8
  %67 = getelementptr inbounds nuw %"class.ncnn::Mat", ptr %44, i32 0, i32 6
  %68 = load ptr, ptr %16, align 8
  %69 = getelementptr inbounds nuw %"class.ncnn::Mat", ptr %68, i32 0, i32 6
  %70 = load i32, ptr %69, align 4
  store i32 %70, ptr %67, align 4
  %71 = getelementptr inbounds nuw %"class.ncnn::Mat", ptr %44, i32 0, i32 7
  %72 = load ptr, ptr %16, align 8
  %73 = getelementptr inbounds nuw %"class.ncnn::Mat", ptr %72, i32 0, i32 7
  %74 = load i32, ptr %73, align 8
  store i32 %74, ptr %71, align 8
  %75 = getelementptr inbounds nuw %"class.ncnn::Mat", ptr %44, i32 0, i32 8
  %76 = load ptr, ptr %16, align 8
  %77 = getelementptr inbounds nuw %"class.ncnn::Mat", ptr %76, i32 0, i32 8
  %78 = load i32, ptr %77, align 4
  store i32 %78, ptr %75, align 4
  %79 = getelementptr inbounds nuw %"class.ncnn::Mat", ptr %44, i32 0, i32 9
  %80 = load ptr, ptr %16, align 8
  %81 = getelementptr inbounds nuw %"class.ncnn::Mat", ptr %80, i32 0, i32 9
  %82 = load i32, ptr %81, align 8
  store i32 %82, ptr %79, align 8
  %83 = getelementptr inbounds nuw %"class.ncnn::Mat", ptr %44, i32 0, i32 10
  %84 = load ptr, ptr %16, align 8
  %85 = getelementptr inbounds nuw %"class.ncnn::Mat", ptr %84, i32 0, i32 10
  %86 = load i64, ptr %85, align 8
  store i64 %86, ptr %83, align 8
  store ptr %44, ptr %4, align 8
  %87 = load ptr, ptr %4, align 8
  %88 = getelementptr inbounds nuw %"class.ncnn::Mat", ptr %87, i32 0, i32 1
  %89 = load ptr, ptr %88, align 8
  %90 = icmp ne ptr %89, null
  br i1 %90, label %91, label %96

91:                                               ; preds = %43
  %92 = getelementptr inbounds nuw %"class.ncnn::Mat", ptr %87, i32 0, i32 1
  %93 = load ptr, ptr %92, align 8
  store i32 1, ptr %5, align 4
  %94 = load i32, ptr %5, align 4
  %95 = atomicrmw add ptr %93, i32 %94 acq_rel, align 4
  store i32 %95, ptr %6, align 4
  br label %96

96:                                               ; preds = %91, %43
  br label %97

97:                                               ; preds = %96
  %98 = load ptr, ptr %22, align 8
  store ptr %42, ptr %98, align 8
  %99 = load i32, ptr %24, align 4
  store ptr %23, ptr %18, align 8
  %100 = load ptr, ptr %18, align 8
  store ptr %100, ptr %9, align 8
  %101 = load ptr, ptr %9, align 8
  %102 = getelementptr inbounds nuw %"class.ncnn::Mat", ptr %101, i32 0, i32 1
  %103 = load ptr, ptr %102, align 8
  %104 = icmp ne ptr %103, null
  br i1 %104, label %105, label %132

105:                                              ; preds = %97
  %106 = getelementptr inbounds nuw %"class.ncnn::Mat", ptr %101, i32 0, i32 1
  %107 = load ptr, ptr %106, align 8
  store i32 -1, ptr %10, align 4
  %108 = load i32, ptr %10, align 4
  %109 = atomicrmw add ptr %107, i32 %108 acq_rel, align 4
  store i32 %109, ptr %11, align 4
  %110 = load i32, ptr %11, align 4
  %111 = icmp eq i32 %110, 1
  br i1 %111, label %112, label %132

112:                                              ; preds = %105
  %113 = getelementptr inbounds nuw %"class.ncnn::Mat", ptr %101, i32 0, i32 4
  %114 = load ptr, ptr %113, align 8
  %115 = icmp ne ptr %114, null
  br i1 %115, label %116, label %124

116:                                              ; preds = %112
  %117 = getelementptr inbounds nuw %"class.ncnn::Mat", ptr %101, i32 0, i32 4
  %118 = load ptr, ptr %117, align 8
  %119 = load ptr, ptr %101, align 8
  %120 = load ptr, ptr %118, align 8
  %121 = getelementptr inbounds ptr, ptr %120, i64 3
  %122 = load ptr, ptr %121, align 8
  invoke void %122(ptr noundef nonnull align 8 dereferenceable(8) %118, ptr noundef %119)
          to label %123 unwind label %142

123:                                              ; preds = %116
  br label %131

124:                                              ; preds = %112
  %125 = load ptr, ptr %101, align 8
  store ptr %125, ptr %8, align 8
  %126 = load ptr, ptr %8, align 8
  %127 = icmp ne ptr %126, null
  br i1 %127, label %128, label %130

128:                                              ; preds = %124
  %129 = load ptr, ptr %8, align 8
  call void @free(ptr noundef %129) #15
  br label %130

130:                                              ; preds = %128, %124
  br label %131

131:                                              ; preds = %130, %123
  br label %132

132:                                              ; preds = %131, %105, %97
  store ptr null, ptr %101, align 8
  %133 = getelementptr inbounds nuw %"class.ncnn::Mat", ptr %101, i32 0, i32 2
  store i64 0, ptr %133, align 8
  %134 = getelementptr inbounds nuw %"class.ncnn::Mat", ptr %101, i32 0, i32 3
  store i32 0, ptr %134, align 8
  %135 = getelementptr inbounds nuw %"class.ncnn::Mat", ptr %101, i32 0, i32 5
  store i32 0, ptr %135, align 8
  %136 = getelementptr inbounds nuw %"class.ncnn::Mat", ptr %101, i32 0, i32 6
  store i32 0, ptr %136, align 4
  %137 = getelementptr inbounds nuw %"class.ncnn::Mat", ptr %101, i32 0, i32 7
  store i32 0, ptr %137, align 8
  %138 = getelementptr inbounds nuw %"class.ncnn::Mat", ptr %101, i32 0, i32 8
  store i32 0, ptr %138, align 4
  %139 = getelementptr inbounds nuw %"class.ncnn::Mat", ptr %101, i32 0, i32 9
  store i32 0, ptr %139, align 8
  %140 = getelementptr inbounds nuw %"class.ncnn::Mat", ptr %101, i32 0, i32 10
  store i64 0, ptr %140, align 8
  %141 = getelementptr inbounds nuw %"class.ncnn::Mat", ptr %101, i32 0, i32 1
  store ptr null, ptr %141, align 8
  br label %145

142:                                              ; preds = %116
  %143 = landingpad { ptr, i32 }
          catch ptr null
  %144 = extractvalue { ptr, i32 } %143, 0
  call void @__clang_call_terminate(ptr %144) #16
  unreachable

145:                                              ; preds = %132
  ret i32 %99

146:                                              ; preds = %41, %3
  %147 = landingpad { ptr, i32 }
          cleanup
  %148 = extractvalue { ptr, i32 } %147, 0
  store ptr %148, ptr %25, align 8
  %149 = extractvalue { ptr, i32 } %147, 1
  store i32 %149, ptr %26, align 4
  br label %154

150:                                              ; No predecessors!
  %151 = landingpad { ptr, i32 }
          cleanup
  %152 = extractvalue { ptr, i32 } %151, 0
  store ptr %152, ptr %25, align 8
  %153 = extractvalue { ptr, i32 } %151, 1
  store i32 %153, ptr %26, align 4
  call void @_ZdlPvm(ptr noundef %42, i64 noundef 72) #14
  br label %154

154:                                              ; preds = %150, %146
  store ptr %23, ptr %17, align 8
  %155 = load ptr, ptr %17, align 8
  store ptr %155, ptr %12, align 8
  %156 = load ptr, ptr %12, align 8
  %157 = getelementptr inbounds nuw %"class.ncnn::Mat", ptr %156, i32 0, i32 1
  %158 = load ptr, ptr %157, align 8
  %159 = icmp ne ptr %158, null
  br i1 %159, label %160, label %187

160:                                              ; preds = %154
  %161 = getelementptr inbounds nuw %"class.ncnn::Mat", ptr %156, i32 0, i32 1
  %162 = load ptr, ptr %161, align 8
  store i32 -1, ptr %13, align 4
  %163 = load i32, ptr %13, align 4
  %164 = atomicrmw add ptr %162, i32 %163 acq_rel, align 4
  store i32 %164, ptr %14, align 4
  %165 = load i32, ptr %14, align 4
  %166 = icmp eq i32 %165, 1
  br i1 %166, label %167, label %187

167:                                              ; preds = %160
  %168 = getelementptr inbounds nuw %"class.ncnn::Mat", ptr %156, i32 0, i32 4
  %169 = load ptr, ptr %168, align 8
  %170 = icmp ne ptr %169, null
  br i1 %170, label %171, label %179

171:                                              ; preds = %167
  %172 = getelementptr inbounds nuw %"class.ncnn::Mat", ptr %156, i32 0, i32 4
  %173 = load ptr, ptr %172, align 8
  %174 = load ptr, ptr %156, align 8
  %175 = load ptr, ptr %173, align 8
  %176 = getelementptr inbounds ptr, ptr %175, i64 3
  %177 = load ptr, ptr %176, align 8
  invoke void %177(ptr noundef nonnull align 8 dereferenceable(8) %173, ptr noundef %174)
          to label %178 unwind label %197

178:                                              ; preds = %171
  br label %186

179:                                              ; preds = %167
  %180 = load ptr, ptr %156, align 8
  store ptr %180, ptr %7, align 8
  %181 = load ptr, ptr %7, align 8
  %182 = icmp ne ptr %181, null
  br i1 %182, label %183, label %185

183:                                              ; preds = %179
  %184 = load ptr, ptr %7, align 8
  call void @free(ptr noundef %184) #15
  br label %185

185:                                              ; preds = %183, %179
  br label %186

186:                                              ; preds = %185, %178
  br label %187

187:                                              ; preds = %186, %160, %154
  store ptr null, ptr %156, align 8
  %188 = getelementptr inbounds nuw %"class.ncnn::Mat", ptr %156, i32 0, i32 2
  store i64 0, ptr %188, align 8
  %189 = getelementptr inbounds nuw %"class.ncnn::Mat", ptr %156, i32 0, i32 3
  store i32 0, ptr %189, align 8
  %190 = getelementptr inbounds nuw %"class.ncnn::Mat", ptr %156, i32 0, i32 5
  store i32 0, ptr %190, align 8
  %191 = getelementptr inbounds nuw %"class.ncnn::Mat", ptr %156, i32 0, i32 6
  store i32 0, ptr %191, align 4
  %192 = getelementptr inbounds nuw %"class.ncnn::Mat", ptr %156, i32 0, i32 7
  store i32 0, ptr %192, align 8
  %193 = getelementptr inbounds nuw %"class.ncnn::Mat", ptr %156, i32 0, i32 8
  store i32 0, ptr %193, align 4
  %194 = getelementptr inbounds nuw %"class.ncnn::Mat", ptr %156, i32 0, i32 9
  store i32 0, ptr %194, align 8
  %195 = getelementptr inbounds nuw %"class.ncnn::Mat", ptr %156, i32 0, i32 10
  store i64 0, ptr %195, align 8
  %196 = getelementptr inbounds nuw %"class.ncnn::Mat", ptr %156, i32 0, i32 1
  store ptr null, ptr %196, align 8
  br label %200

197:                                              ; preds = %171
  %198 = landingpad { ptr, i32 }
          catch ptr null
  %199 = extractvalue { ptr, i32 } %198, 0
  call void @__clang_call_terminate(ptr %199) #16
  unreachable

200:                                              ; preds = %187
  br label %201

201:                                              ; preds = %200
  %202 = load ptr, ptr %25, align 8
  %203 = load i32, ptr %26, align 4
  %204 = insertvalue { ptr, i32 } poison, ptr %202, 0
  %205 = insertvalue { ptr, i32 } %204, i32 %203, 1
  resume { ptr, i32 } %205
}