; Function Attrs: mustprogress uwtable
define hidden noundef i32 @ncnn_extractor_extract_index(ptr noundef nonnull %0, i32 noundef %1, ptr nocapture noundef writeonly %2) local_unnamed_addr #1 personality ptr @__gxx_personality_v0 {
  %4 = alloca %"class.ncnn::Mat", align 8
  %5 = getelementptr inbounds nuw i8, ptr %4, i64 8
  %6 = getelementptr inbounds nuw i8, ptr %4, i64 16
  %7 = getelementptr inbounds nuw i8, ptr %4, i64 24
  %8 = getelementptr inbounds nuw i8, ptr %4, i64 32
  %9 = getelementptr inbounds nuw i8, ptr %4, i64 40
  %10 = getelementptr inbounds nuw i8, ptr %4, i64 44
  %11 = getelementptr inbounds nuw i8, ptr %4, i64 48
  %12 = getelementptr inbounds nuw i8, ptr %4, i64 52
  %13 = getelementptr inbounds nuw i8, ptr %4, i64 56
  %14 = getelementptr inbounds nuw i8, ptr %4, i64 64
  store i64 0, ptr %14, align 8
  call void @llvm.memset.p0.i64(ptr noundef nonnull align 8 dereferenceable(28) %4, i8 0, i64 28, i1 false)
  call void @llvm.memset.p0.i64(ptr noundef nonnull align 8 dereferenceable(28) %8, i8 0, i64 28, i1 false)
  %15 = invoke noundef i32 @_ZN4ncnn9Extractor7extractEiRNS_3MatEi(ptr noundef nonnull align 8 dereferenceable(16) %0, i32 noundef %1, ptr noundef nonnull align 8 dereferenceable(72) %4, i32 noundef 0)
          to label %16 unwind label %58

16:                                               ; preds = %3
  %17 = invoke noalias noundef nonnull dereferenceable(72) ptr @_Znwm(i64 noundef 72) #24
          to label %18 unwind label %58

18:                                               ; preds = %16
  %19 = load ptr, ptr %4, align 8
  store ptr %19, ptr %17, align 8
  %20 = getelementptr inbounds nuw i8, ptr %17, i64 8
  %21 = load ptr, ptr %5, align 8
  store ptr %21, ptr %20, align 8
  %22 = getelementptr inbounds nuw i8, ptr %17, i64 16
  %23 = load i64, ptr %6, align 8
  store i64 %23, ptr %22, align 8
  %24 = getelementptr inbounds nuw i8, ptr %17, i64 24
  %25 = load i32, ptr %7, align 8
  store i32 %25, ptr %24, align 8
  %26 = getelementptr inbounds nuw i8, ptr %17, i64 32
  %27 = load ptr, ptr %8, align 8
  store ptr %27, ptr %26, align 8
  %28 = getelementptr inbounds nuw i8, ptr %17, i64 40
  %29 = load i32, ptr %9, align 8
  store i32 %29, ptr %28, align 8
  %30 = getelementptr inbounds nuw i8, ptr %17, i64 44
  %31 = load i32, ptr %10, align 4
  store i32 %31, ptr %30, align 4
  %32 = getelementptr inbounds nuw i8, ptr %17, i64 48
  %33 = load i32, ptr %11, align 8
  store i32 %33, ptr %32, align 8
  %34 = getelementptr inbounds nuw i8, ptr %17, i64 52
  %35 = load i32, ptr %12, align 4
  store i32 %35, ptr %34, align 4
  %36 = getelementptr inbounds nuw i8, ptr %17, i64 56
  %37 = load i32, ptr %13, align 8
  store i32 %37, ptr %36, align 8
  %38 = getelementptr inbounds nuw i8, ptr %17, i64 64
  %39 = load i64, ptr %14, align 8
  store i64 %39, ptr %38, align 8
  %.not40 = icmp eq ptr %21, null
  br i1 %.not40, label %.thread, label %40

.thread:                                          ; preds = %18
  store ptr %17, ptr %2, align 8
  br label %54

40:                                               ; preds = %18
  %41 = atomicrmw add ptr %21, i32 1 acq_rel, align 4
  %.pre = load ptr, ptr %5, align 8
  store ptr %17, ptr %2, align 8
  %.not41 = icmp eq ptr %.pre, null
  br i1 %.not41, label %54, label %42

42:                                               ; preds = %40
  %43 = atomicrmw add ptr %.pre, i32 -1 acq_rel, align 4
  %44 = icmp eq i32 %43, 1
  br i1 %44, label %45, label %54

45:                                               ; preds = %42
  %46 = load ptr, ptr %8, align 8
  %.not42 = icmp eq ptr %46, null
  %47 = load ptr, ptr %4, align 8
  br i1 %.not42, label %52, label %48

48:                                               ; preds = %45
  %49 = load ptr, ptr %46, align 8
  %50 = getelementptr inbounds i8, ptr %49, i64 24
  %51 = load ptr, ptr %50, align 8
  invoke void %51(ptr noundef nonnull align 8 dereferenceable(8) %46, ptr noundef %47)
          to label %54 unwind label %55

52:                                               ; preds = %45
  %.not43 = icmp eq ptr %47, null
  br i1 %.not43, label %54, label %53

53:                                               ; preds = %52
  call void @free(ptr noundef nonnull %47) #26
  br label %54

54:                                               ; preds = %.thread, %48, %53, %52, %42, %40
  ret i32 %15

55:                                               ; preds = %48
  %56 = landingpad { ptr, i32 }
          catch ptr null
  %57 = extractvalue { ptr, i32 } %56, 0
  call void @__clang_call_terminate(ptr %57) #27
  unreachable

58:                                               ; preds = %16, %3
  %59 = landingpad { ptr, i32 }
          cleanup
  %60 = load ptr, ptr %5, align 8
  %.not = icmp eq ptr %60, null
  br i1 %.not, label %73, label %61

61:                                               ; preds = %58
  %62 = atomicrmw add ptr %60, i32 -1 acq_rel, align 4
  %63 = icmp eq i32 %62, 1
  br i1 %63, label %64, label %73

64:                                               ; preds = %61
  %65 = load ptr, ptr %8, align 8
  %.not38 = icmp eq ptr %65, null
  %66 = load ptr, ptr %4, align 8
  br i1 %.not38, label %71, label %67

67:                                               ; preds = %64
  %68 = load ptr, ptr %65, align 8
  %69 = getelementptr inbounds i8, ptr %68, i64 24
  %70 = load ptr, ptr %69, align 8
  invoke void %70(ptr noundef nonnull align 8 dereferenceable(8) %65, ptr noundef %66)
          to label %73 unwind label %74

71:                                               ; preds = %64
  %.not39 = icmp eq ptr %66, null
  br i1 %.not39, label %73, label %72

72:                                               ; preds = %71
  call void @free(ptr noundef nonnull %66) #26
  br label %73

73:                                               ; preds = %67, %72, %71, %61, %58
  resume { ptr, i32 } %59

74:                                               ; preds = %67
  %75 = landingpad { ptr, i32 }
          catch ptr null
  %76 = extractvalue { ptr, i32 } %75, 0
  call void @__clang_call_terminate(ptr %76) #27
  unreachable
}